target datalayout = "e-m:e-p270:32:32-p271:32:32-p272:64:64-i64:64-i128:128-f80:128-n8:16:32:64-S128"
target triple = "x86_64-pc-linux-gnu"

@H5_libinit_g = external global i8, align 1
@H5_libterm_g = external global i8, align 1
@.str = private unnamed_addr constant [102 x i8] c"generated/home/dtcxzyw/WorkSpace/Projects/compilers/llvm-opt-benchmark/bench/hdf5/hdf5/src/H5Tarray.c\00", align 1
@H5E_FUNC_g = external global i64, align 8
@H5E_CANTINIT_g = external global i64, align 8
@.str.1 = private unnamed_addr constant [30 x i8] c"library initialization failed\00", align 1
@H5E_CANTSET_g = external global i64, align 8
@.str.2 = private unnamed_addr constant [22 x i8] c"can't set API context\00", align 1
@H5E_ARGS_g = external global i64, align 8
@H5E_BADVALUE_g = external global i64, align 8
@.str.3 = private unnamed_addr constant [23 x i8] c"invalid dimensionality\00", align 1
@.str.4 = private unnamed_addr constant [24 x i8] c"no dimensions specified\00", align 1
@.str.5 = private unnamed_addr constant [31 x i8] c"zero-sized dimension specified\00", align 1
@H5E_BADTYPE_g = external global i64, align 8
@.str.6 = private unnamed_addr constant [27 x i8] c"not an valid base datatype\00", align 1
@H5E_DATATYPE_g = external global i64, align 8
@H5E_CANTREGISTER_g = external global i64, align 8
@.str.7 = private unnamed_addr constant [26 x i8] c"unable to create datatype\00", align 1
@.str.8 = private unnamed_addr constant [28 x i8] c"unable to register datatype\00", align 1
@H5E_CANTRELEASE_g = external global i64, align 8
@.str.9 = private unnamed_addr constant [23 x i8] c"can't release datatype\00", align 1
@__func__.H5Tarray_create1 = private unnamed_addr constant [17 x i8] c"H5Tarray_create1\00", align 1

; Function Attrs: nounwind uwtable
define i64 @H5Tarray_create1(i64 noundef %0, i32 noundef %1, ptr noundef %2, ptr noundef %3) #0 {
  %5 = alloca i64, align 8
  %6 = alloca i32, align 4
  %7 = alloca ptr, align 8
  %8 = alloca ptr, align 8
  %9 = alloca ptr, align 8
  %10 = alloca ptr, align 8
  %11 = alloca i32, align 4
  %12 = alloca i64, align 8
  %13 = alloca i8, align 1
  %14 = alloca i8, align 1
  store i64 %0, ptr %5, align 8
  store i32 %1, ptr %6, align 4
  store ptr %2, ptr %7, align 8
  store ptr %3, ptr %8, align 8
  store ptr null, ptr %10, align 8
  store i8 0, ptr %13, align 1
  store i8 0, ptr %14, align 1
  %15 = load i8, ptr @H5_libinit_g, align 1
  %16 = trunc i8 %15 to i1
  br i1 %16, label %21, label %17

17:                                               ; preds = %4
  %18 = load i8, ptr @H5_libterm_g, align 1
  %19 = trunc i8 %18 to i1
  %20 = xor i1 %19, true
  br label %21

21:                                               ; preds = %17, %4
  %22 = phi i1 [ false, %4 ], [ %20, %17 ]
  %23 = xor i1 %22, true
  %24 = xor i1 %23, true
  %25 = zext i1 %24 to i32
  %26 = sext i32 %25 to i64
  %27 = icmp ne i64 %26, 0
  br i1 %27, label %28, label %52

28:                                               ; preds = %21
  %29 = call i32 @H5_init_library()
  %30 = icmp slt i32 %29, 0
  %31 = xor i1 %30, true
  %32 = xor i1 %31, true
  %33 = zext i1 %32 to i32
  %34 = sext i32 %33 to i64
  %35 = icmp ne i64 %34, 0
  br i1 %35, label %36, label %51

36:                                               ; preds = %28
  br label %37

37:                                               ; preds = %36
  br label %38

38:                                               ; preds = %37
  br label %39

39:                                               ; preds = %38
  %40 = load i64, ptr @H5E_FUNC_g, align 8
  %41 = load i64, ptr @H5E_CANTINIT_g, align 8
  %42 = call i32 (ptr, ptr, i32, i64, i64, ptr, ...) @H5E_printf_stack(ptr noundef @.str, ptr noundef @__func__.H5Tarray_create1, i32 noundef 317, i64 noundef %40, i64 noundef %41, ptr noundef @.str.1)
  br label %43

43:                                               ; preds = %39
  store i8 1, ptr %14, align 1
  %44 = load i8, ptr %14, align 1
  %45 = trunc i8 %44 to i1
  %46 = zext i1 %45 to i8
  store i8 %46, ptr %14, align 1
  br label %47

47:                                               ; preds = %43
  br label %48

48:                                               ; preds = %47
  store i64 -1, ptr %12, align 8
  br label %207

49:                                               ; No predecessors!
  br label %50

50:                                               ; preds = %49
  br label %51

51:                                               ; preds = %50, %28
  br label %52

52:                                               ; preds = %51, %21
  %53 = call i32 @H5CX_push()
  %54 = icmp slt i32 %53, 0
  %55 = xor i1 %54, true
  %56 = xor i1 %55, true
  %57 = zext i1 %56 to i32
  %58 = sext i32 %57 to i64
  %59 = icmp ne i64 %58, 0
  br i1 %59, label %60, label %75

60:                                               ; preds = %52
  br label %61

61:                                               ; preds = %60
  br label %62

62:                                               ; preds = %61
  br label %63

63:                                               ; preds = %62
  %64 = load i64, ptr @H5E_FUNC_g, align 8
  %65 = load i64, ptr @H5E_CANTSET_g, align 8
  %66 = call i32 (ptr, ptr, i32, i64, i64, ptr, ...) @H5E_printf_stack(ptr noundef @.str, ptr noundef @__func__.H5Tarray_create1, i32 noundef 317, i64 noundef %64, i64 noundef %65, ptr noundef @.str.2)
  br label %67

67:                                               ; preds = %63
  store i8 1, ptr %14, align 1
  %68 = load i8, ptr %14, align 1
  %69 = trunc i8 %68 to i1
  %70 = zext i1 %69 to i8
  store i8 %70, ptr %14, align 1
  br label %71

71:                                               ; preds = %67
  br label %72

72:                                               ; preds = %71
  store i64 -1, ptr %12, align 8
  br label %207

73:                                               ; No predecessors!
  br label %74

74:                                               ; preds = %73
  br label %76

75:                                               ; preds = %52
  store i8 1, ptr %13, align 1
  br label %76

76:                                               ; preds = %75, %74
  %77 = call i32 @H5E_clear_stack()
  %78 = load i32, ptr %6, align 4
  %79 = icmp slt i32 %78, 1
  br i1 %79, label %83, label %80

80:                                               ; preds = %76
  %81 = load i32, ptr %6, align 4
  %82 = icmp sgt i32 %81, 32
  br i1 %82, label %83, label %98

83:                                               ; preds = %80, %76
  br label %84

84:                                               ; preds = %83
  br label %85

85:                                               ; preds = %84
  br label %86

86:                                               ; preds = %85
  %87 = load i64, ptr @H5E_ARGS_g, align 8
  %88 = load i64, ptr @H5E_BADVALUE_g, align 8
  %89 = call i32 (ptr, ptr, i32, i64, i64, ptr, ...) @H5E_printf_stack(ptr noundef @.str, ptr noundef @__func__.H5Tarray_create1, i32 noundef 321, i64 noundef %87, i64 noundef %88, ptr noundef @.str.3)
  br label %90

90:                                               ; preds = %86
  store i8 1, ptr %14, align 1
  %91 = load i8, ptr %14, align 1
  %92 = trunc i8 %91 to i1
  %93 = zext i1 %92 to i8
  store i8 %93, ptr %14, align 1
  br label %94

94:                                               ; preds = %90
  br label %95

95:                                               ; preds = %94
  store i64 -1, ptr %12, align 8
  br label %207

96:                                               ; No predecessors!
  br label %97

97:                                               ; preds = %96
  br label %98

98:                                               ; preds = %97, %80
  %99 = load ptr, ptr %7, align 8
  %100 = icmp ne ptr %99, null
  br i1 %100, label %116, label %101

101:                                              ; preds = %98
  br label %102

102:                                              ; preds = %101
  br label %103

103:                                              ; preds = %102
  br label %104

104:                                              ; preds = %103
  %105 = load i64, ptr @H5E_ARGS_g, align 8
  %106 = load i64, ptr @H5E_BADVALUE_g, align 8
  %107 = call i32 (ptr, ptr, i32, i64, i64, ptr, ...) @H5E_printf_stack(ptr noundef @.str, ptr noundef @__func__.H5Tarray_create1, i32 noundef 323, i64 noundef %105, i64 noundef %106, ptr noundef @.str.4)
  br label %108

108:                                              ; preds = %104
  store i8 1, ptr %14, align 1
  %109 = load i8, ptr %14, align 1
  %110 = trunc i8 %109 to i1
  %111 = zext i1 %110 to i8
  store i8 %111, ptr %14, align 1
  br label %112

112:                                              ; preds = %108
  br label %113

113:                                              ; preds = %112
  store i64 -1, ptr %12, align 8
  br label %207

114:                                              ; No predecessors!
  br label %115

115:                                              ; preds = %114
  br label %116

116:                                              ; preds = %115, %98
  store i32 0, ptr %11, align 4
  br label %117

117:                                              ; preds = %144, %116
  %118 = load i32, ptr %11, align 4
  %119 = load i32, ptr %6, align 4
  %120 = icmp ult i32 %118, %119
  br i1 %120, label %121, label %147

121:                                              ; preds = %117
  %122 = load ptr, ptr %7, align 8
  %123 = load i32, ptr %11, align 4
  %124 = zext i32 %123 to i64
  %125 = getelementptr inbounds i64, ptr %122, i64 %124
  %126 = load i64, ptr %125, align 8
  %127 = icmp ugt i64 %126, 0
  br i1 %127, label %143, label %128

128:                                              ; preds = %121
  br label %129

129:                                              ; preds = %128
  br label %130

130:                                              ; preds = %129
  br label %131

131:                                              ; preds = %130
  %132 = load i64, ptr @H5E_ARGS_g, align 8
  %133 = load i64, ptr @H5E_BADVALUE_g, align 8
  %134 = call i32 (ptr, ptr, i32, i64, i64, ptr, ...) @H5E_printf_stack(ptr noundef @.str, ptr noundef @__func__.H5Tarray_create1, i32 noundef 326, i64 noundef %132, i64 noundef %133, ptr noundef @.str.5)
  br label %135

135:                                              ; preds = %131
  store i8 1, ptr %14, align 1
  %136 = load i8, ptr %14, align 1
  %137 = trunc i8 %136 to i1
  %138 = zext i1 %137 to i8
  store i8 %138, ptr %14, align 1
  br label %139

139:                                              ; preds = %135
  br label %140

140:                                              ; preds = %139
  store i64 -1, ptr %12, align 8
  br label %207

141:                                              ; No predecessors!
  br label %142

142:                                              ; preds = %141
  br label %143

143:                                              ; preds = %142, %121
  br label %144

144:                                              ; preds = %143
  %145 = load i32, ptr %11, align 4
  %146 = add i32 %145, 1
  store i32 %146, ptr %11, align 4
  br label %117

147:                                              ; preds = %117
  %148 = load i64, ptr %5, align 8
  %149 = call ptr @H5I_object_verify(i64 noundef %148, i32 noundef 3)
  store ptr %149, ptr %9, align 8
  %150 = icmp eq ptr null, %149
  br i1 %150, label %151, label %166

151:                                              ; preds = %147
  br label %152

152:                                              ; preds = %151
  br label %153

153:                                              ; preds = %152
  br label %154

154:                                              ; preds = %153
  %155 = load i64, ptr @H5E_ARGS_g, align 8
  %156 = load i64, ptr @H5E_BADTYPE_g, align 8
  %157 = call i32 (ptr, ptr, i32, i64, i64, ptr, ...) @H5E_printf_stack(ptr noundef @.str, ptr noundef @__func__.H5Tarray_create1, i32 noundef 328, i64 noundef %155, i64 noundef %156, ptr noundef @.str.6)
  br label %158

158:                                              ; preds = %154
  store i8 1, ptr %14, align 1
  %159 = load i8, ptr %14, align 1
  %160 = trunc i8 %159 to i1
  %161 = zext i1 %160 to i8
  store i8 %161, ptr %14, align 1
  br label %162

162:                                              ; preds = %158
  br label %163

163:                                              ; preds = %162
  store i64 -1, ptr %12, align 8
  br label %207

164:                                              ; No predecessors!
  br label %165

165:                                              ; preds = %164
  br label %166

166:                                              ; preds = %165, %147
  %167 = load ptr, ptr %9, align 8
  %168 = load i32, ptr %6, align 4
  %169 = load ptr, ptr %7, align 8
  %170 = call ptr @H5T__array_create(ptr noundef %167, i32 noundef %168, ptr noundef %169)
  store ptr %170, ptr %10, align 8
  %171 = icmp eq ptr null, %170
  br i1 %171, label %172, label %187

172:                                              ; preds = %166
  br label %173

173:                                              ; preds = %172
  br label %174

174:                                              ; preds = %173
  br label %175

175:                                              ; preds = %174
  %176 = load i64, ptr @H5E_DATATYPE_g, align 8
  %177 = load i64, ptr @H5E_CANTREGISTER_g, align 8
  %178 = call i32 (ptr, ptr, i32, i64, i64, ptr, ...) @H5E_printf_stack(ptr noundef @.str, ptr noundef @__func__.H5Tarray_create1, i32 noundef 332, i64 noundef %176, i64 noundef %177, ptr noundef @.str.7)
  br label %179

179:                                              ; preds = %175
  store i8 1, ptr %14, align 1
  %180 = load i8, ptr %14, align 1
  %181 = trunc i8 %180 to i1
  %182 = zext i1 %181 to i8
  store i8 %182, ptr %14, align 1
  br label %183

183:                                              ; preds = %179
  br label %184

184:                                              ; preds = %183
  store i64 -1, ptr %12, align 8
  br label %207

185:                                              ; No predecessors!
  br label %186

186:                                              ; preds = %185
  br label %187

187:                                              ; preds = %186, %166
  %188 = load ptr, ptr %10, align 8
  %189 = call i64 @H5I_register(i32 noundef 3, ptr noundef %188, i1 noundef zeroext true)
  store i64 %189, ptr %12, align 8
  %190 = icmp slt i64 %189, 0
  br i1 %190, label %191, label %206

191:                                              ; preds = %187
  br label %192

192:                                              ; preds = %191
  br label %193

193:                                              ; preds = %192
  br label %194

194:                                              ; preds = %193
  %195 = load i64, ptr @H5E_DATATYPE_g, align 8
  %196 = load i64, ptr @H5E_CANTREGISTER_g, align 8
  %197 = call i32 (ptr, ptr, i32, i64, i64, ptr, ...) @H5E_printf_stack(ptr noundef @.str, ptr noundef @__func__.H5Tarray_create1, i32 noundef 336, i64 noundef %195, i64 noundef %196, ptr noundef @.str.8)
  br label %198

198:                                              ; preds = %194
  store i8 1, ptr %14, align 1
  %199 = load i8, ptr %14, align 1
  %200 = trunc i8 %199 to i1
  %201 = zext i1 %200 to i8
  store i8 %201, ptr %14, align 1
  br label %202

202:                                              ; preds = %198
  br label %203

203:                                              ; preds = %202
  store i64 -1, ptr %12, align 8
  br label %207

204:                                              ; No predecessors!
  br label %205

205:                                              ; preds = %204
  br label %206

206:                                              ; preds = %205, %187
  br label %207

207:                                              ; preds = %206, %203, %184, %163, %140, %113, %95, %72, %48
  %208 = load i64, ptr %12, align 8
  %209 = icmp slt i64 %208, 0
  br i1 %209, label %210, label %231

210:                                              ; preds = %207
  %211 = load ptr, ptr %10, align 8
  %212 = icmp ne ptr %211, null
  br i1 %212, label %213, label %230

213:                                              ; preds = %210
  %214 = load ptr, ptr %10, align 8
  %215 = call i32 @H5T_close_real(ptr noundef %214)
  %216 = icmp slt i32 %215, 0
  br i1 %216, label %217, label %230

217:                                              ; preds = %213
  br label %218

218:                                              ; preds = %217
  br label %219

219:                                              ; preds = %218
  br label %220

220:                                              ; preds = %219
  %221 = load i64, ptr @H5E_DATATYPE_g, align 8
  %222 = load i64, ptr @H5E_CANTRELEASE_g, align 8
  %223 = call i32 (ptr, ptr, i32, i64, i64, ptr, ...) @H5E_printf_stack(ptr noundef @.str, ptr noundef @__func__.H5Tarray_create1, i32 noundef 341, i64 noundef %221, i64 noundef %222, ptr noundef @.str.9)
  br label %224

224:                                              ; preds = %220
  store i8 1, ptr %14, align 1
  %225 = load i8, ptr %14, align 1
  %226 = trunc i8 %225 to i1
  %227 = zext i1 %226 to i8
  store i8 %227, ptr %14, align 1
  br label %228

228:                                              ; preds = %224
  store i64 -1, ptr %12, align 8
  br label %229

229:                                              ; preds = %228
  br label %230

230:                                              ; preds = %229, %213, %210
  br label %231

231:                                              ; preds = %230, %207
  %232 = load i8, ptr %13, align 1
  %233 = trunc i8 %232 to i1
  %234 = xor i1 %233, true
  %235 = xor i1 %234, true
  %236 = zext i1 %235 to i32
  %237 = sext i32 %236 to i64
  %238 = icmp ne i64 %237, 0
  br i1 %238, label %239, label %241

239:                                              ; preds = %231
  %240 = call i32 @H5CX_pop(i1 noundef zeroext true)
  store i8 0, ptr %13, align 1
  br label %241

241:                                              ; preds = %239, %231
  %242 = load i8, ptr %14, align 1
  %243 = trunc i8 %242 to i1
  %244 = xor i1 %243, true
  %245 = xor i1 %244, true
  %246 = zext i1 %245 to i32
  %247 = sext i32 %246 to i64
  %248 = icmp ne i64 %247, 0
  br i1 %248, label %249, label %251

249:                                              ; preds = %241
  %250 = call i32 @H5E_dump_api_stack()
  br label %251

251:                                              ; preds = %249, %241
  %252 = load i64, ptr %12, align 8
  ret i64 %252
}