; Function Attrs: nounwind uwtable
define range(i64 -1, -9223372036854775808) i64 @H5Tarray_create1(i64 noundef %0, i32 noundef %1, ptr noundef readonly %2, ptr nocapture noundef readnone %3) local_unnamed_addr #0 {
  %5 = load i8, ptr @H5_libinit_g, align 1
  %6 = trunc i8 %5 to i1
  %7 = load i8, ptr @H5_libterm_g, align 1
  %8 = trunc i8 %7 to i1
  %9 = select i1 %6, i1 true, i1 %8
  br i1 %9, label %17, label %10

10:                                               ; preds = %4
  %11 = tail call i32 @H5_init_library() #5
  %12 = icmp slt i32 %11, 0
  br i1 %12, label %13, label %17

13:                                               ; preds = %10
  %14 = load i64, ptr @H5E_FUNC_g, align 8
  %15 = load i64, ptr @H5E_CANTINIT_g, align 8
  %16 = tail call i32 (ptr, ptr, i32, i64, i64, ptr, ...) @H5E_printf_stack(ptr noundef nonnull @.str, ptr noundef nonnull @__func__.H5Tarray_create1, i32 noundef 317, i64 noundef %14, i64 noundef %15, ptr noundef nonnull @.str.1) #5
  br label %.thread63

17:                                               ; preds = %10, %4
  %18 = tail call i32 @H5CX_push() #5
  %19 = icmp slt i32 %18, 0
  br i1 %19, label %20, label %24

20:                                               ; preds = %17
  %21 = load i64, ptr @H5E_FUNC_g, align 8
  %22 = load i64, ptr @H5E_CANTSET_g, align 8
  %23 = tail call i32 (ptr, ptr, i32, i64, i64, ptr, ...) @H5E_printf_stack(ptr noundef nonnull @.str, ptr noundef nonnull @__func__.H5Tarray_create1, i32 noundef 317, i64 noundef %21, i64 noundef %22, ptr noundef nonnull @.str.2) #5
  br label %.thread63

24:                                               ; preds = %17
  %25 = tail call i32 @H5E_clear_stack() #5
  %26 = add i32 %1, -33
  %or.cond = icmp ult i32 %26, -32
  br i1 %or.cond, label %27, label %31

27:                                               ; preds = %24
  %28 = load i64, ptr @H5E_ARGS_g, align 8
  %29 = load i64, ptr @H5E_BADVALUE_g, align 8
  %30 = tail call i32 (ptr, ptr, i32, i64, i64, ptr, ...) @H5E_printf_stack(ptr noundef nonnull @.str, ptr noundef nonnull @__func__.H5Tarray_create1, i32 noundef 321, i64 noundef %28, i64 noundef %29, ptr noundef nonnull @.str.3) #5
  br label %.thread72

31:                                               ; preds = %24
  %.not = icmp eq ptr %2, null
  br i1 %.not, label %32, label %.lr.ph.preheader

.lr.ph.preheader:                                 ; preds = %31
  %wide.trip.count = zext nneg i32 %1 to i64
  br label %.lr.ph

32:                                               ; preds = %31
  %33 = load i64, ptr @H5E_ARGS_g, align 8
  %34 = load i64, ptr @H5E_BADVALUE_g, align 8
  %35 = tail call i32 (ptr, ptr, i32, i64, i64, ptr, ...) @H5E_printf_stack(ptr noundef nonnull @.str, ptr noundef nonnull @__func__.H5Tarray_create1, i32 noundef 323, i64 noundef %33, i64 noundef %34, ptr noundef nonnull @.str.4) #5
  br label %.thread72

36:                                               ; preds = %.lr.ph
  %indvars.iv.next = add nuw nsw i64 %indvars.iv, 1
  %exitcond.not = icmp eq i64 %indvars.iv.next, %wide.trip.count
  br i1 %exitcond.not, label %._crit_edge, label %.lr.ph

.lr.ph:                                           ; preds = %.lr.ph.preheader, %36
  %indvars.iv = phi i64 [ 0, %.lr.ph.preheader ], [ %indvars.iv.next, %36 ]
  %37 = getelementptr inbounds i64, ptr %2, i64 %indvars.iv
  %38 = load i64, ptr %37, align 8
  %.not41 = icmp eq i64 %38, 0
  br i1 %.not41, label %39, label %36

39:                                               ; preds = %.lr.ph
  %40 = load i64, ptr @H5E_ARGS_g, align 8
  %41 = load i64, ptr @H5E_BADVALUE_g, align 8
  %42 = tail call i32 (ptr, ptr, i32, i64, i64, ptr, ...) @H5E_printf_stack(ptr noundef nonnull @.str, ptr noundef nonnull @__func__.H5Tarray_create1, i32 noundef 326, i64 noundef %40, i64 noundef %41, ptr noundef nonnull @.str.5) #5
  br label %.thread72

._crit_edge:                                      ; preds = %36
  %43 = tail call ptr @H5I_object_verify(i64 noundef %0, i32 noundef 3) #5
  %44 = icmp eq ptr %43, null
  br i1 %44, label %45, label %49

45:                                               ; preds = %._crit_edge
  %46 = load i64, ptr @H5E_ARGS_g, align 8
  %47 = load i64, ptr @H5E_BADTYPE_g, align 8
  %48 = tail call i32 (ptr, ptr, i32, i64, i64, ptr, ...) @H5E_printf_stack(ptr noundef nonnull @.str, ptr noundef nonnull @__func__.H5Tarray_create1, i32 noundef 328, i64 noundef %46, i64 noundef %47, ptr noundef nonnull @.str.6) #5
  br label %.thread72

49:                                               ; preds = %._crit_edge
  %50 = tail call ptr @H5T__array_create(ptr noundef nonnull %43, i32 noundef %1, ptr noundef nonnull %2)
  %51 = icmp eq ptr %50, null
  br i1 %51, label %52, label %56

52:                                               ; preds = %49
  %53 = load i64, ptr @H5E_DATATYPE_g, align 8
  %54 = load i64, ptr @H5E_CANTREGISTER_g, align 8
  %55 = tail call i32 (ptr, ptr, i32, i64, i64, ptr, ...) @H5E_printf_stack(ptr noundef nonnull @.str, ptr noundef nonnull @__func__.H5Tarray_create1, i32 noundef 332, i64 noundef %53, i64 noundef %54, ptr noundef nonnull @.str.7) #5
  br label %.thread72

56:                                               ; preds = %49
  %57 = tail call i64 @H5I_register(i32 noundef 3, ptr noundef nonnull %50, i1 noundef zeroext true) #5
  %58 = icmp slt i64 %57, 0
  br i1 %58, label %59, label %71

59:                                               ; preds = %56
  %60 = load i64, ptr @H5E_DATATYPE_g, align 8
  %61 = load i64, ptr @H5E_CANTREGISTER_g, align 8
  %62 = tail call i32 (ptr, ptr, i32, i64, i64, ptr, ...) @H5E_printf_stack(ptr noundef nonnull @.str, ptr noundef nonnull @__func__.H5Tarray_create1, i32 noundef 336, i64 noundef %60, i64 noundef %61, ptr noundef nonnull @.str.8) #5
  %63 = tail call i32 @H5T_close_real(ptr noundef nonnull %50) #5
  %64 = icmp slt i32 %63, 0
  br i1 %64, label %65, label %.thread68

65:                                               ; preds = %59
  %66 = load i64, ptr @H5E_DATATYPE_g, align 8
  %67 = load i64, ptr @H5E_CANTRELEASE_g, align 8
  %68 = tail call i32 (ptr, ptr, i32, i64, i64, ptr, ...) @H5E_printf_stack(ptr noundef nonnull @.str, ptr noundef nonnull @__func__.H5Tarray_create1, i32 noundef 341, i64 noundef %66, i64 noundef %67, ptr noundef nonnull @.str.9) #5
  br label %.thread68

.thread68:                                        ; preds = %59, %65
  %69 = tail call i32 @H5CX_pop(i1 noundef zeroext true) #5
  br label %.thread63

.thread72:                                        ; preds = %27, %39, %45, %52, %32
  %70 = tail call i32 @H5CX_pop(i1 noundef zeroext true) #5
  br label %.thread63

71:                                               ; preds = %56
  %72 = tail call i32 @H5CX_pop(i1 noundef zeroext true) #5
  br label %74

.thread63:                                        ; preds = %13, %20, %.thread72, %.thread68
  %73 = tail call i32 @H5E_dump_api_stack() #5
  br label %74

74:                                               ; preds = %71, %.thread63
  %.1325366 = phi i64 [ -1, %.thread63 ], [ %57, %71 ]
  ret i64 %.1325366
}